#include <math.h>
#include <stdio.h>
#include <stdlib.h>
#include <string.h>

int main()
{
	int a[13];
	a[1]=12;
	a[2]=43;
	a[3]=71;
	a[4]=102;
	a[5]=132;
	a[6]=163;
	a[7]=193;
	a[8]=224;
	a[9]=255;
	a[10]=285;
	a[11]=316;
	a[12]=346;
	int w,i;
	scanf("%d",&w);
	for(i=1;i<=12;i++)
	{
		if((a[i]+w)%7==5)
		{
			printf("%d\n",i);
		}
	}
	return 0;
}